target datalayout = "e-m:e-p270:32:32-p271:32:32-p272:64:64-i64:64-i128:128-f80:128-n8:16:32:64-S128"
target triple = "x86_64-unknown-linux-gnu"

%struct.crypto_ex_data_st = type { ptr }
%struct.ssl_ctx_st = type { ptr, %union.crypto_mutex_st, i16, i16, ptr, ptr, ptr, ptr, ptr, ptr, i64, ptr, ptr, i32, i32, i64, ptr, ptr, ptr, i32, ptr, ptr, ptr, ptr, ptr, ptr, %struct.crypto_ex_data_st, ptr, ptr, ptr, ptr, i32, i32, i32, ptr, ptr, ptr, i32, i32, [32 x i8], ptr, ptr, ptr, ptr, i16, ptr, ptr, [16 x i8], [16 x i8], [16 x i8], ptr, ptr, ptr, ptr, i8, ptr, ptr, ptr, ptr, ptr, ptr, ptr, i32, ptr, i64, ptr, ptr, ptr, i64, ptr, i64, ptr, ptr, i8, ptr, i32 }
%union.crypto_mutex_st = type { double, [48 x i8] }

@.str = private unnamed_addr constant [116 x i8] c"generated/home/dtcxzyw/WorkSpace/Projects/compilers/llvm-opt-benchmark/bench/libquic/libquic/boringssl/ssl/s3_lib.c\00", align 1

; Function Attrs: nounwind uwtable
define hidden i32 @SSL_CTX_get_tlsext_ticket_keys(ptr noundef %ctx, ptr noundef %out, i64 noundef %len) #0 {
entry:
  %retval = alloca i32, align 4
  %ctx.addr = alloca ptr, align 8
  %out.addr = alloca ptr, align 8
  %len.addr = alloca i64, align 8
  %out_bytes = alloca ptr, align 8
  store ptr %ctx, ptr %ctx.addr, align 8
  store ptr %out, ptr %out.addr, align 8
  store i64 %len, ptr %len.addr, align 8
  %0 = load ptr, ptr %out.addr, align 8
  %cmp = icmp eq ptr %0, null
  br i1 %cmp, label %if.then, label %if.end

if.then:                                          ; preds = %entry
  store i32 48, ptr %retval, align 4
  br label %return

if.end:                                           ; preds = %entry
  %1 = load i64, ptr %len.addr, align 8
  %cmp1 = icmp ne i64 %1, 48
  br i1 %cmp1, label %if.then2, label %if.end3

if.then2:                                         ; preds = %if.end
  call void @ERR_put_error(i32 noundef 16, i32 noundef 0, i32 noundef 161, ptr noundef @.str, i32 noundef 412)
  store i32 0, ptr %retval, align 4
  br label %return

if.end3:                                          ; preds = %if.end
  %2 = load ptr, ptr %out.addr, align 8
  store ptr %2, ptr %out_bytes, align 8
  %3 = load ptr, ptr %out_bytes, align 8
  %4 = load ptr, ptr %ctx.addr, align 8
  %tlsext_tick_key_name = getelementptr inbounds %struct.ssl_ctx_st, ptr %4, i32 0, i32 47
  %arraydecay = getelementptr inbounds [16 x i8], ptr %tlsext_tick_key_name, i64 0, i64 0
  call void @llvm.memcpy.p0.p0.i64(ptr align 1 %3, ptr align 8 %arraydecay, i64 16, i1 false)
  %5 = load ptr, ptr %out_bytes, align 8
  %add.ptr = getelementptr inbounds i8, ptr %5, i64 16
  %6 = load ptr, ptr %ctx.addr, align 8
  %tlsext_tick_hmac_key = getelementptr inbounds %struct.ssl_ctx_st, ptr %6, i32 0, i32 48
  %arraydecay4 = getelementptr inbounds [16 x i8], ptr %tlsext_tick_hmac_key, i64 0, i64 0
  call void @llvm.memcpy.p0.p0.i64(ptr align 1 %add.ptr, ptr align 8 %arraydecay4, i64 16, i1 false)
  %7 = load ptr, ptr %out_bytes, align 8
  %add.ptr5 = getelementptr inbounds i8, ptr %7, i64 32
  %8 = load ptr, ptr %ctx.addr, align 8
  %tlsext_tick_aes_key = getelementptr inbounds %struct.ssl_ctx_st, ptr %8, i32 0, i32 49
  %arraydecay6 = getelementptr inbounds [16 x i8], ptr %tlsext_tick_aes_key, i64 0, i64 0
  call void @llvm.memcpy.p0.p0.i64(ptr align 1 %add.ptr5, ptr align 8 %arraydecay6, i64 16, i1 false)
  store i32 1, ptr %retval, align 4
  br label %return

return:                                           ; preds = %if.end3, %if.then2, %if.then
  %9 = load i32, ptr %retval, align 4
  ret i32 %9
}