; Function Attrs: nounwind uwtable
define hidden range(i32 0, 49) i32 @SSL_CTX_get_tlsext_ticket_keys(ptr noundef readonly captures(none) %ctx, ptr noundef writeonly %out, i64 noundef %len) local_unnamed_addr #1 {
entry:
  %cmp = icmp eq ptr %out, null
  br i1 %cmp, label %return, label %if.end

if.end:                                           ; preds = %entry
  %cmp1.not = icmp eq i64 %len, 48
  br i1 %cmp1.not, label %if.end3, label %if.then2

if.then2:                                         ; preds = %if.end
  tail call void @ERR_put_error(i32 noundef 16, i32 noundef 0, i32 noundef 161, ptr noundef nonnull @.str, i32 noundef 412) #14
  br label %return

if.end3:                                          ; preds = %if.end
  %tlsext_tick_key_name = getelementptr inbounds nuw i8, ptr %ctx, i64 416
  tail call void @llvm.memcpy.p0.p0.i64(ptr noundef nonnull align 1 dereferenceable(16) %out, ptr noundef nonnull align 8 dereferenceable(16) %tlsext_tick_key_name, i64 16, i1 false)
  %add.ptr = getelementptr inbounds nuw i8, ptr %out, i64 16
  %tlsext_tick_hmac_key = getelementptr inbounds nuw i8, ptr %ctx, i64 432
  tail call void @llvm.memcpy.p0.p0.i64(ptr noundef nonnull align 1 dereferenceable(16) %add.ptr, ptr noundef nonnull align 8 dereferenceable(16) %tlsext_tick_hmac_key, i64 16, i1 false)
  %add.ptr5 = getelementptr inbounds nuw i8, ptr %out, i64 32
  %tlsext_tick_aes_key = getelementptr inbounds nuw i8, ptr %ctx, i64 448
  tail call void @llvm.memcpy.p0.p0.i64(ptr noundef nonnull align 1 dereferenceable(16) %add.ptr5, ptr noundef nonnull align 8 dereferenceable(16) %tlsext_tick_aes_key, i64 16, i1 false)
  br label %return

return:                                           ; preds = %entry, %if.end3, %if.then2
  %retval.0 = phi i32 [ 0, %if.then2 ], [ 1, %if.end3 ], [ 48, %entry ]
  ret i32 %retval.0
}